; Function Attrs: nounwind uwtable
define internal void @_ArchiveEntry(ptr readnone captures(none) %0, ptr noundef captures(none) initializes((152, 160)) %1) #0 {
  %3 = tail call ptr @pg_malloc0(i64 noundef 16) #7
  %4 = getelementptr inbounds nuw i8, ptr %1, i64 136
  %5 = load ptr, ptr %4, align 8
  %.not = icmp eq ptr %5, null
  %. = select i1 %.not, i32 3, i32 1
  store i32 %., ptr %3, align 8
  %6 = getelementptr inbounds nuw i8, ptr %1, i64 152
  store ptr %3, ptr %6, align 8
  ret void
}